target datalayout = "e-m:e-p270:32:32-p271:32:32-p272:64:64-i64:64-i128:128-f80:128-n8:16:32:64-S128"
target triple = "x86_64-pc-linux-gnu"

%"class.icu_77::number::impl::CompactData" = type <{ %"class.icu_77::number::impl::MultiplierProducer", [168 x ptr], [21 x i8], i8, i8, i8 }>
%"class.icu_77::number::impl::MultiplierProducer" = type { ptr }

; Function Attrs: mustprogress nounwind uwtable
define noundef i32 @_ZNK6icu_776number4impl11CompactData13getMultiplierEi(ptr noundef nonnull align 8 dereferenceable(1375) %0, i32 noundef %1) unnamed_addr #0 align 2 {
  %3 = alloca i32, align 4
  %4 = alloca ptr, align 8
  %5 = alloca i32, align 4
  store ptr %0, ptr %4, align 8, !tbaa !23
  store i32 %1, ptr %5, align 4, !tbaa !14
  %6 = load ptr, ptr %4, align 8
  %7 = load i32, ptr %5, align 4, !tbaa !14
  %8 = icmp slt i32 %7, 0
  br i1 %8, label %9, label %10

9:                                                ; preds = %2
  store i32 0, ptr %3, align 4
  br label %27

10:                                               ; preds = %2
  %11 = load i32, ptr %5, align 4, !tbaa !14
  %12 = getelementptr inbounds nuw %"class.icu_77::number::impl::CompactData", ptr %6, i32 0, i32 3
  %13 = load i8, ptr %12, align 1, !tbaa !27
  %14 = sext i8 %13 to i32
  %15 = icmp sgt i32 %11, %14
  br i1 %15, label %16, label %20

16:                                               ; preds = %10
  %17 = getelementptr inbounds nuw %"class.icu_77::number::impl::CompactData", ptr %6, i32 0, i32 3
  %18 = load i8, ptr %17, align 1, !tbaa !27
  %19 = sext i8 %18 to i32
  store i32 %19, ptr %5, align 4, !tbaa !14
  br label %20

20:                                               ; preds = %16, %10
  %21 = getelementptr inbounds nuw %"class.icu_77::number::impl::CompactData", ptr %6, i32 0, i32 2
  %22 = load i32, ptr %5, align 4, !tbaa !14
  %23 = sext i32 %22 to i64
  %24 = getelementptr inbounds [21 x i8], ptr %21, i64 0, i64 %23
  %25 = load i8, ptr %24, align 1, !tbaa !56
  %26 = sext i8 %25 to i32
  store i32 %26, ptr %3, align 4
  br label %27

27:                                               ; preds = %20, %9
  %28 = load i32, ptr %3, align 4
  ret i32 %28
}