; Function Attrs: mustprogress nofree norecurse nosync nounwind willreturn memory(argmem: read) uwtable
define noundef range(i32 -128, 128) i32 @_ZNK6icu_776number4impl11CompactData13getMultiplierEi(ptr noundef nonnull readonly align 8 captures(none) dereferenceable(1375) %0, i32 noundef %1) unnamed_addr #14 align 2 {
  %3 = icmp slt i32 %1, 0
  br i1 %3, label %13, label %4

4:                                                ; preds = %2
  %5 = getelementptr inbounds nuw i8, ptr %0, i64 1373
  %6 = load i8, ptr %5, align 1, !tbaa !31
  %7 = sext i8 %6 to i32
  %spec.select = tail call i32 @llvm.smin.i32(i32 %1, i32 %7)
  %8 = getelementptr inbounds nuw i8, ptr %0, i64 1352
  %9 = sext i32 %spec.select to i64
  %10 = getelementptr inbounds [21 x i8], ptr %8, i64 0, i64 %9
  %11 = load i8, ptr %10, align 1, !tbaa !30
  %12 = sext i8 %11 to i32
  br label %13

13:                                               ; preds = %2, %4
  %.04 = phi i32 [ %12, %4 ], [ 0, %2 ]
  ret i32 %.04
}